(dp0
VServer
p1
Vcmsweb.cern.ch
p2
sVPort
p3
V
p4
sVRequestName
p5
V240514_193914:pbaertsc_crab_Muon0_Run2024A-SiPixelCalSingleMuonTight-PromptReco-v1
p6
sVvoRole
p7
VNULL
p8
sVvoGroup
p9
g4
sVinstance
p10
Vprod
p11
sVOriginalConfig
p12
ccopy_reg
_reconstructor
p13
(cWMCore.Configuration
Configuration
p14
c__builtin__
object
p15
Ntp16
Rp17
(dp18
V_internal_sections
p19
(lp20
VGeneral
p21
aVJobType
p22
aVData
p23
aVSite
p24
aVUser
p25
aVDebug
p26
asg21
g13
(cWMCore.Configuration
ConfigSection
p27
g15
Ntp28
Rp29
(dp30
V_internal_documentation
p31
g4
sV_internal_name
p32
g21
sV_internal_settings
p33
c__builtin__
set
p34
((lp35
VworkArea
p36
aVtransferOutputs
p37
aVrequestName
p38
aVtransferLogs
p39
atp40
Rp41
sV_internal_docstrings
p42
(dp43
sV_internal_children
p44
g34
((lp45
tp46
Rp47
sV_internal_parent_ref
p48
NsV_internal_skipChecks
p49
I00
sg39
I01
sg37
I01
sg36
Vtasks
p50
sg38
VMuon0_Run2024A-SiPixelCalSingleMuonTight-PromptReco-v1
p51
sbsg22
g13
(g27
g15
Ntp52
Rp53
(dp54
g31
g4
sg32
g22
sg33
g34
((lp55
VpsetName
p56
aVpluginName
p57
atp58
Rp59
sg42
(dp60
sg44
g34
((lp61
tp62
Rp63
sg48
Nsg49
I00
sg57
VAnalysis
p64
sg56
V/work/pbaertsc/pixel/CMSSW_14_0_4/src/SiPixelTools/PixelTriplets/pxl_BPIX_FPIX_genIBC.py
p65
sbsg23
g13
(g27
g15
Ntp66
Rp67
(dp68
g31
g4
sg32
g23
sg33
g34
((lp69
VinputDataset
p70
aVinputDBS
p71
aVoutputDatasetTag
p72
aVunitsPerJob
p73
aVsplitting
p74
aVpublication
p75
aVlumiMask
p76
aVoutLFNDirBase
p77
atp78
Rp79
sg42
(dp80
sg44
g34
((lp81
tp82
Rp83
sg48
Nsg49
I00
sg70
V/Muon0/Run2024A-SiPixelCalSingleMuonTight-PromptReco-v1/ALCARECO
p84
sg72
g51
sg75
I00
sg73
I1
sg71
Vglobal
p85
sg74
VFileBased
p86
sg76
VCert_Collisions2024_378981_380115_Golden.json
p87
sg77
V/store/user/pbaertsc/pixel/
p88
sbsg24
g13
(g27
g15
Ntp89
Rp90
(dp91
g31
g4
sg32
g24
sg33
g34
((lp92
VstorageSite
p93
aVblacklist
p94
atp95
Rp96
sg42
(dp97
sg44
g34
((lp98
tp99
Rp100
sg48
Nsg49
I00
sg94
(lp101
VT2_BR_SPRACE
p102
aVT3_UK_London_QMUL
p103
asg93
VT3_CH_PSI
p104
sbsg25
g13
(g27
g15
Ntp105
Rp106
(dp107
g31
g4
sg32
g25
sg33
g34
((lp108
tp109
Rp110
sg42
(dp111
sg44
g34
((lp112
tp113
Rp114
sg48
Nsg49
I00
sbsg26
g13
(g27
g15
Ntp115
Rp116
(dp117
g31
g4
sg32
g26
sg33
g34
((lp118
VextraJDL
p119
atp120
Rp121
sg42
(dp122
sg44
g34
((lp123
tp124
Rp125
sg48
Nsg49
I00
sg119
(lp126
V+CMS_ALLOW_OVERFLOW=False
p127
asbsbs.